; ModuleID = '40/3111.c'
source_filename = "40/3111.c"
target datalayout = "e-m:e-p270:32:32-p271:32:32-p272:64:64-i64:64-f80:128-n8:16:32:64-S128"
target triple = "x86_64-pc-linux-gnu"

@.str = private unnamed_addr constant [3 x i8] c"%f\00", align 1
@.str.1 = private unnamed_addr constant [14 x i8] c"Invalid input\00", align 1
@.str.2 = private unnamed_addr constant [5 x i8] c"%.4f\00", align 1

; Function Attrs: noinline nounwind uwtable
define dso_local i32 @main() #0 {
  %1 = alloca i32, align 4
  %2 = alloca float, align 4
  %3 = alloca float, align 4
  %4 = alloca float, align 4
  %5 = alloca float, align 4
  %6 = alloca float, align 4
  %7 = alloca float, align 4
  %8 = alloca float, align 4
  %9 = alloca float, align 4
  store i32 0, i32* %1, align 4
  %10 = call i32 (i8*, ...) @__isoc99_scanf(i8* getelementptr inbounds ([3 x i8], [3 x i8]* @.str, i64 0, i64 0), float* %2)
  %11 = call i32 (i8*, ...) @__isoc99_scanf(i8* getelementptr inbounds ([3 x i8], [3 x i8]* @.str, i64 0, i64 0), float* %3)
  %12 = call i32 (i8*, ...) @__isoc99_scanf(i8* getelementptr inbounds ([3 x i8], [3 x i8]* @.str, i64 0, i64 0), float* %4)
  %13 = call i32 (i8*, ...) @__isoc99_scanf(i8* getelementptr inbounds ([3 x i8], [3 x i8]* @.str, i64 0, i64 0), float* %5)
  %14 = call i32 (i8*, ...) @__isoc99_scanf(i8* getelementptr inbounds ([3 x i8], [3 x i8]* @.str, i64 0, i64 0), float* %6)
  %15 = load float, float* %2, align 4
  %16 = load float, float* %3, align 4
  %17 = fadd float %15, %16
  %18 = load float, float* %4, align 4
  %19 = fadd float %17, %18
  %20 = load float, float* %5, align 4
  %21 = fadd float %19, %20
  %22 = fdiv float %21, 2.000000e+00
  store float %22, float* %8, align 4
  %23 = load float, float* %6, align 4
  %24 = fpext float %23 to double
  %25 = fmul double %24, 0x400921FB4D12D84A
  %26 = fdiv double %25, 3.600000e+02
  %27 = fptrunc double %26 to float
  store float %27, float* %9, align 4
  %28 = load float, float* %8, align 4
  %29 = load float, float* %2, align 4
  %30 = fsub float %28, %29
  %31 = load float, float* %8, align 4
  %32 = load float, float* %3, align 4
  %33 = fsub float %31, %32
  %34 = fmul float %30, %33
  %35 = load float, float* %8, align 4
  %36 = load float, float* %4, align 4
  %37 = fsub float %35, %36
  %38 = fmul float %34, %37
  %39 = load float, float* %8, align 4
  %40 = load float, float* %5, align 4
  %41 = fsub float %39, %40
  %42 = fmul float %38, %41
  %43 = fpext float %42 to double
  %44 = load float, float* %2, align 4
  %45 = load float, float* %3, align 4
  %46 = fmul float %44, %45
  %47 = load float, float* %4, align 4
  %48 = fmul float %46, %47
  %49 = load float, float* %5, align 4
  %50 = fmul float %48, %49
  %51 = fpext float %50 to double
  %52 = load float, float* %9, align 4
  %53 = fpext float %52 to double
  %54 = call double @cos(double %53) #3
  %55 = fmul double %51, %54
  %56 = load float, float* %9, align 4
  %57 = fpext float %56 to double
  %58 = call double @cos(double %57) #3
  %59 = fmul double %55, %58
  %60 = fsub double %43, %59
  %61 = fcmp olt double %60, 0.000000e+00
  br i1 %61, label %62, label %64

62:                                               ; preds = %0
  %63 = call i32 (i8*, ...) @printf(i8* getelementptr inbounds ([14 x i8], [14 x i8]* @.str.1, i64 0, i64 0))
  br label %103

64:                                               ; preds = %0
  %65 = load float, float* %8, align 4
  %66 = load float, float* %2, align 4
  %67 = fsub float %65, %66
  %68 = load float, float* %8, align 4
  %69 = load float, float* %3, align 4
  %70 = fsub float %68, %69
  %71 = fmul float %67, %70
  %72 = load float, float* %8, align 4
  %73 = load float, float* %4, align 4
  %74 = fsub float %72, %73
  %75 = fmul float %71, %74
  %76 = load float, float* %8, align 4
  %77 = load float, float* %5, align 4
  %78 = fsub float %76, %77
  %79 = fmul float %75, %78
  %80 = fpext float %79 to double
  %81 = load float, float* %2, align 4
  %82 = load float, float* %3, align 4
  %83 = fmul float %81, %82
  %84 = load float, float* %4, align 4
  %85 = fmul float %83, %84
  %86 = load float, float* %5, align 4
  %87 = fmul float %85, %86
  %88 = fpext float %87 to double
  %89 = load float, float* %9, align 4
  %90 = fpext float %89 to double
  %91 = call double @cos(double %90) #3
  %92 = fmul double %88, %91
  %93 = load float, float* %9, align 4
  %94 = fpext float %93 to double
  %95 = call double @cos(double %94) #3
  %96 = fmul double %92, %95
  %97 = fsub double %80, %96
  %98 = call double @sqrt(double %97) #3
  %99 = fptrunc double %98 to float
  store float %99, float* %7, align 4
  %100 = load float, float* %7, align 4
  %101 = fpext float %100 to double
  %102 = call i32 (i8*, ...) @printf(i8* getelementptr inbounds ([5 x i8], [5 x i8]* @.str.2, i64 0, i64 0), double %101)
  br label %103

103:                                              ; preds = %64, %62
  %104 = load i32, i32* %1, align 4
  ret i32 %104
}

declare dso_local i32 @__isoc99_scanf(i8*, ...) #1

; Function Attrs: nounwind
declare dso_local double @cos(double) #2

declare dso_local i32 @printf(i8*, ...) #1

; Function Attrs: nounwind
declare dso_local double @sqrt(double) #2


!llvm.module.flags = !{!0}
!llvm.ident = !{!1}

!0 = !{i32 1, !"wchar_size", i32 4}
!1 = !{!"clang version 10.0.0-4ubuntu1 "}
